; Function Attrs: mustprogress nofree norecurse nosync nounwind willreturn memory(read, inaccessiblemem: none) uwtable
define dso_local i32 @onig_get_callout_in_by_name_id(i32 noundef %0) local_unnamed_addr #13 {
  %2 = icmp slt i32 %0, 0
  br i1 %2, label %12, label %3

3:                                                ; preds = %1
  %4 = load ptr, ptr @GlobalCalloutNameList, align 8, !tbaa !4
  %5 = load i32, ptr %4, align 8, !tbaa !62
  %.not = icmp slt i32 %0, %5
  br i1 %.not, label %6, label %12

6:                                                ; preds = %3
  %7 = getelementptr inbounds nuw i8, ptr %4, i64 8
  %8 = load ptr, ptr %7, align 8, !tbaa !65
  %9 = zext nneg i32 %0 to i64
  %10 = getelementptr inbounds nuw %struct.CalloutNameListEntry, ptr %8, i64 %9, i32 1
  %11 = load i32, ptr %10, align 4, !tbaa !69
  br label %12

12:                                               ; preds = %1, %3, %6
  %.0 = phi i32 [ %11, %6 ], [ 0, %3 ], [ 0, %1 ]
  ret i32 %.0
}